; Function Attrs: nounwind uwtable
define internal i32 @gmac_get_params(ptr noundef %0) #0 {
  %2 = tail call ptr @OSSL_PARAM_locate(ptr noundef %0, ptr noundef nonnull @.str.2) #5
  %.not = icmp eq ptr %2, null
  br i1 %.not, label %5, label %3

3:                                                ; preds = %1
  %4 = tail call i32 @OSSL_PARAM_set_size_t(ptr noundef nonnull %2, i64 noundef 16) #5
  br label %5

5:                                                ; preds = %1, %3
  %.0 = phi i32 [ %4, %3 ], [ 1, %1 ]
  ret i32 %.0
}